; Function Attrs: nounwind uwtable
define internal ptr @run_fileexflags(ptr readnone captures(none) %0, ptr noundef %1) #0 {
  %3 = alloca ptr, align 8
  %4 = alloca i64, align 8
  %5 = alloca i32, align 4
  %6 = alloca ptr, align 8
  %7 = alloca ptr, align 8
  %8 = alloca i32, align 4
  %9 = alloca %struct.PyCompilerFlags, align 8
  %10 = alloca i32, align 4
  %11 = alloca i32, align 4
  call void @llvm.lifetime.start.p0(i64 8, ptr nonnull %3) #4
  store ptr null, ptr %3, align 8, !tbaa !13
  call void @llvm.lifetime.start.p0(i64 8, ptr nonnull %4) #4
  call void @llvm.lifetime.start.p0(i64 4, ptr nonnull %5) #4
  call void @llvm.lifetime.start.p0(i64 8, ptr nonnull %6) #4
  store ptr null, ptr %6, align 8, !tbaa !3
  call void @llvm.lifetime.start.p0(i64 8, ptr nonnull %7) #4
  store ptr null, ptr %7, align 8, !tbaa !3
  call void @llvm.lifetime.start.p0(i64 4, ptr nonnull %8) #4
  store i32 0, ptr %8, align 4, !tbaa !8
  call void @llvm.lifetime.start.p0(i64 8, ptr nonnull %9) #4
  store i64 60129542144, ptr %9, align 8
  call void @llvm.lifetime.start.p0(i64 4, ptr nonnull %10) #4
  store i32 0, ptr %10, align 4, !tbaa !8
  call void @llvm.lifetime.start.p0(i64 4, ptr nonnull %11) #4
  store i32 0, ptr %11, align 4, !tbaa !8
  %12 = call i32 (ptr, ptr, ...) @PyArg_ParseTuple(ptr noundef %1, ptr noundef nonnull @.str.4, ptr noundef nonnull %3, ptr noundef nonnull %4, ptr noundef nonnull %5, ptr noundef nonnull %6, ptr noundef nonnull %7, ptr noundef nonnull %8, ptr noundef nonnull %10, ptr noundef nonnull %11) #4
  %.not = icmp eq i32 %12, 0
  br i1 %.not, label %Py_XDECREF.exit, label %13

13:                                               ; preds = %2
  %14 = load ptr, ptr %6, align 8, !tbaa !3
  %15 = icmp eq ptr %14, @_Py_NoneStruct
  br i1 %15, label %16, label %17

16:                                               ; preds = %13
  store ptr null, ptr %6, align 8, !tbaa !3
  br label %17

17:                                               ; preds = %13, %16
  %18 = load ptr, ptr %7, align 8, !tbaa !3
  %19 = icmp eq ptr %18, @_Py_NoneStruct
  br i1 %19, label %20, label %21

20:                                               ; preds = %17
  store ptr null, ptr %7, align 8, !tbaa !3
  br label %21

21:                                               ; preds = %20, %17
  %22 = load i32, ptr %10, align 4, !tbaa !8
  %23 = icmp ne i32 %22, 0
  %24 = load i32, ptr %11, align 4
  %25 = icmp ne i32 %24, 0
  %or.cond = select i1 %23, i1 true, i1 %25
  br i1 %or.cond, label %26, label %28

26:                                               ; preds = %21
  store i32 %22, ptr %9, align 8, !tbaa !10
  %27 = getelementptr inbounds nuw i8, ptr %9, i64 4
  store i32 %24, ptr %27, align 4, !tbaa !12
  br label %28

28:                                               ; preds = %21, %26
  %.016 = phi ptr [ %9, %26 ], [ null, %21 ]
  %29 = load ptr, ptr %3, align 8, !tbaa !13
  %30 = call noalias ptr @fopen64(ptr noundef %29, ptr noundef nonnull @.str.5)
  %31 = icmp eq ptr %30, null
  br i1 %31, label %32, label %36

32:                                               ; preds = %28
  %33 = load ptr, ptr @PyExc_OSError, align 8, !tbaa !3
  %34 = load ptr, ptr %3, align 8, !tbaa !13
  %35 = call ptr @PyErr_SetFromErrnoWithFilename(ptr noundef %33, ptr noundef %34) #4
  br label %Py_XDECREF.exit

36:                                               ; preds = %28
  %37 = call i32 @fileno(ptr noundef nonnull %30) #4
  %38 = load ptr, ptr %3, align 8, !tbaa !13
  %39 = load i32, ptr %5, align 4, !tbaa !8
  %40 = load ptr, ptr %6, align 8, !tbaa !3
  %41 = load ptr, ptr %7, align 8, !tbaa !3
  %42 = load i32, ptr %8, align 4, !tbaa !8
  %43 = call ptr @PyRun_FileExFlags(ptr noundef nonnull %30, ptr noundef %38, i32 noundef %39, ptr noundef %40, ptr noundef %41, i32 noundef %42, ptr noundef %.016) #4
  %44 = load i32, ptr %8, align 4, !tbaa !8
  %45 = icmp ne i32 %44, 0
  %46 = icmp ne ptr %43, null
  %or.cond3 = select i1 %45, i1 %46, i1 false
  br i1 %or.cond3, label %47, label %57

47:                                               ; preds = %36
  %48 = call i32 @_Py_IsValidFD(i32 noundef %37) #4
  %.not19 = icmp eq i32 %48, 0
  br i1 %.not19, label %thread-pre-split, label %49

49:                                               ; preds = %47
  %50 = load ptr, ptr @PyExc_AssertionError, align 8, !tbaa !3
  call void @PyErr_SetString(ptr noundef %50, ptr noundef nonnull @.str.6) #4
  %51 = load i32, ptr %43, align 8, !tbaa !15
  %.not.i = icmp sgt i32 %51, -1
  br i1 %.not.i, label %52, label %Py_DECREF.exit

52:                                               ; preds = %49
  %53 = add nsw i32 %51, -1
  store i32 %53, ptr %43, align 8, !tbaa !15
  %54 = icmp eq i32 %53, 0
  br i1 %54, label %55, label %Py_DECREF.exit

55:                                               ; preds = %52
  call void @_Py_Dealloc(ptr noundef nonnull %43) #4
  br label %Py_DECREF.exit

Py_DECREF.exit:                                   ; preds = %49, %52, %55
  %56 = call i32 @fclose(ptr noundef nonnull %30)
  br label %Py_XDECREF.exit

thread-pre-split:                                 ; preds = %47
  %.pr = load i32, ptr %8, align 4, !tbaa !8
  br label %57

57:                                               ; preds = %thread-pre-split, %36
  %58 = phi i32 [ %.pr, %thread-pre-split ], [ %44, %36 ]
  %.not20 = icmp eq i32 %58, 0
  br i1 %.not20, label %59, label %Py_XDECREF.exit

59:                                               ; preds = %57
  %60 = call i32 @_Py_IsValidFD(i32 noundef %37) #4
  %.not21 = icmp eq i32 %60, 0
  br i1 %.not21, label %61, label %69

61:                                               ; preds = %59
  %62 = load ptr, ptr @PyExc_AssertionError, align 8, !tbaa !3
  call void @PyErr_SetString(ptr noundef %62, ptr noundef nonnull @.str.7) #4
  %.not.i23 = icmp eq ptr %43, null
  br i1 %.not.i23, label %Py_XDECREF.exit, label %63

63:                                               ; preds = %61
  %64 = load i32, ptr %43, align 8, !tbaa !15
  %.not.i.i = icmp sgt i32 %64, -1
  br i1 %.not.i.i, label %65, label %Py_XDECREF.exit

65:                                               ; preds = %63
  %66 = add nsw i32 %64, -1
  store i32 %66, ptr %43, align 8, !tbaa !15
  %67 = icmp eq i32 %66, 0
  br i1 %67, label %68, label %Py_XDECREF.exit

68:                                               ; preds = %65
  call void @_Py_Dealloc(ptr noundef nonnull %43) #4
  br label %Py_XDECREF.exit

69:                                               ; preds = %59
  %.pre = load i32, ptr %8, align 4, !tbaa !8
  %70 = icmp eq i32 %.pre, 0
  br i1 %70, label %71, label %Py_XDECREF.exit

71:                                               ; preds = %69
  %72 = call i32 @fclose(ptr noundef nonnull %30)
  br label %Py_XDECREF.exit

Py_XDECREF.exit:                                  ; preds = %57, %68, %65, %63, %61, %Py_DECREF.exit, %71, %69, %2, %32
  %.0 = phi ptr [ null, %32 ], [ null, %2 ], [ null, %Py_DECREF.exit ], [ %43, %71 ], [ %43, %69 ], [ null, %61 ], [ null, %63 ], [ null, %65 ], [ null, %68 ], [ %43, %57 ]
  call void @llvm.lifetime.end.p0(i64 4, ptr nonnull %11) #4
  call void @llvm.lifetime.end.p0(i64 4, ptr nonnull %10) #4
  call void @llvm.lifetime.end.p0(i64 8, ptr nonnull %9) #4
  call void @llvm.lifetime.end.p0(i64 4, ptr nonnull %8) #4
  call void @llvm.lifetime.end.p0(i64 8, ptr nonnull %7) #4
  call void @llvm.lifetime.end.p0(i64 8, ptr nonnull %6) #4
  call void @llvm.lifetime.end.p0(i64 4, ptr nonnull %5) #4
  call void @llvm.lifetime.end.p0(i64 8, ptr nonnull %4) #4
  call void @llvm.lifetime.end.p0(i64 8, ptr nonnull %3) #4
  ret ptr %.0
}